; Function Attrs: mustprogress nofree norecurse nosync nounwind willreturn memory(argmem: read) uwtable
define dso_local noundef zeroext i1 @_ZNK4Luau8LocationneERKS0_(ptr nocapture noundef nonnull readonly align 4 dereferenceable(16) %0, ptr nocapture noundef nonnull readonly align 4 dereferenceable(16) %1) local_unnamed_addr #0 align 2 {
  %3 = load <2 x i32>, ptr %0, align 4
  %4 = load <2 x i32>, ptr %1, align 4
  %5 = icmp eq <2 x i32> %3, %4
  %6 = extractelement <2 x i1> %5, i64 0
  %7 = extractelement <2 x i1> %5, i64 1
  %8 = select i1 %7, i1 %6, i1 false
  br i1 %8, label %9, label %_ZNK4Luau8LocationeqERKS0_.exit

9:                                                ; preds = %2
  %10 = getelementptr inbounds i8, ptr %0, i64 8
  %11 = getelementptr inbounds i8, ptr %1, i64 8
  %12 = getelementptr inbounds i8, ptr %0, i64 12
  %13 = load i32, ptr %12, align 4
  %14 = getelementptr inbounds i8, ptr %1, i64 12
  %15 = load i32, ptr %14, align 4
  %16 = icmp ne i32 %13, %15
  %17 = load i32, ptr %10, align 4
  %18 = load i32, ptr %11, align 4
  %19 = icmp ne i32 %17, %18
  %.not3 = select i1 %16, i1 true, i1 %19
  br label %_ZNK4Luau8LocationeqERKS0_.exit

_ZNK4Luau8LocationeqERKS0_.exit:                  ; preds = %2, %9
  %20 = phi i1 [ true, %2 ], [ %.not3, %9 ]
  ret i1 %20
}